target datalayout = "e-m:e-p270:32:32-p271:32:32-p272:64:64-i64:64-i128:128-f80:128-n8:16:32:64-S128"
target triple = "x86_64-pc-linux-gnu"

%struct.reassembly_table = type { ptr, ptr, ptr, ptr, ptr }
%struct.reassembly_table_functions = type { ptr, ptr, ptr, ptr, ptr, ptr }

@handle_to_uuid = internal global ptr null, align 8
@msg_reassembly_table = internal global %struct.reassembly_table zeroinitializer, align 8
@addresses_ports_reassembly_table_functions = external constant %struct.reassembly_table_functions, align 8
@.str.308 = private unnamed_addr constant [13 x i8] c"btatt.handle\00", align 1
@proto_register_btatt.ett = internal global [8 x ptr] [ptr @ett_btatt, ptr @ett_btatt_list, ptr @ett_btatt_value, ptr @ett_btatt_opcode, ptr @ett_btatt_handle, ptr @ett_btatt_characteristic_properties, ptr @ett_btatt_fragment, ptr @ett_btatt_fragments], align 16
@.str.2124 = private unnamed_addr constant [6 x i8] c"btatt\00", align 1
@.str.2125 = private unnamed_addr constant [29 x i8] c"Bluetooth Attribute Protocol\00", align 1
@.str.2126 = private unnamed_addr constant [7 x i8] c"BT ATT\00", align 1
@proto_btatt = internal global i32 0, align 4
@btatt_handle = internal global ptr null, align 8
@.str.2127 = private unnamed_addr constant [14 x i8] c"BT ATT Handle\00", align 1
@att_handle_dissector_table = internal global ptr null, align 8
@.str.2128 = private unnamed_addr constant [14 x i8] c"btatt.service\00", align 1
@.str.2129 = private unnamed_addr constant [15 x i8] c"BT ATT Service\00", align 1
@att_service_dissector_table = internal global ptr null, align 8
@mtus = internal global ptr null, align 8
@requests = internal global ptr null, align 8
@fragments = internal global ptr null, align 8
@.str.2130 = private unnamed_addr constant [10 x i8] c"Bluetooth\00", align 1
@.str.2131 = private unnamed_addr constant [12 x i8] c"att.version\00", align 1
@.str.2132 = private unnamed_addr constant [45 x i8] c"Bluetooth Protocol ATT version from Core 4.0\00", align 1
@.str.2133 = private unnamed_addr constant [49 x i8] c"Version of protocol supported by this dissector.\00", align 1
@.str.2134 = private unnamed_addr constant [14 x i8] c"btatt.handles\00", align 1
@btatt_tap_handles = internal global i32 -1, align 4

; Function Attrs: null_pointer_is_valid sspstrong uwtable
define hidden void @proto_register_btatt() #0 {
  %1 = alloca ptr, align 8
  %2 = alloca ptr, align 8
  call void @llvm.lifetime.start.p0(i64 8, ptr %1) #12
  call void @llvm.lifetime.start.p0(i64 8, ptr %2) #12
  call void @reassembly_table_register(ptr noundef @msg_reassembly_table, ptr noundef @addresses_ports_reassembly_table_functions)
  call void @reassembly_table_init(ptr noundef @msg_reassembly_table, ptr noundef @addresses_ports_reassembly_table_functions)
  %3 = call i32 @proto_register_protocol(ptr noundef @.str.2125, ptr noundef @.str.2126, ptr noundef @.str.2124)
  store i32 %3, ptr @proto_btatt, align 4
  %4 = load i32, ptr @proto_btatt, align 4
  %5 = call ptr @register_dissector(ptr noundef @.str.2124, ptr noundef @dissect_btatt, i32 noundef %4)
  store ptr %5, ptr @btatt_handle, align 8
  %6 = load i32, ptr @proto_btatt, align 4
  %7 = call ptr @register_dissector_table(ptr noundef @.str.308, ptr noundef @.str.2127, i32 noundef %6, i32 noundef 5, i32 noundef 2)
  store ptr %7, ptr @att_handle_dissector_table, align 8
  %8 = load i32, ptr @proto_btatt, align 4
  %9 = call ptr @register_dissector_table(ptr noundef @.str.2128, ptr noundef @.str.2129, i32 noundef %8, i32 noundef 5, i32 noundef 2)
  store ptr %9, ptr @att_service_dissector_table, align 8
  %10 = load i32, ptr @proto_btatt, align 4
  call void @proto_register_field_array(i32 noundef %10, ptr noundef @proto_register_btatt.hf, i32 noundef 1082)
  call void @proto_register_subtree_array(ptr noundef @proto_register_btatt.ett, i32 noundef 8)
  %11 = load i32, ptr @proto_btatt, align 4
  %12 = call ptr @expert_register_protocol(i32 noundef %11)
  store ptr %12, ptr %2, align 8
  %13 = load ptr, ptr %2, align 8
  call void @expert_register_field_array(ptr noundef %13, ptr noundef @proto_register_btatt.ei, i32 noundef 13)
  %14 = call ptr @wmem_epan_scope()
  %15 = call ptr @wmem_file_scope()
  %16 = call noalias ptr @wmem_tree_new_autoreset(ptr noundef %14, ptr noundef %15)
  store ptr %16, ptr @mtus, align 8
  %17 = call ptr @wmem_epan_scope()
  %18 = call ptr @wmem_file_scope()
  %19 = call noalias ptr @wmem_tree_new_autoreset(ptr noundef %17, ptr noundef %18)
  store ptr %19, ptr @requests, align 8
  %20 = call ptr @wmem_epan_scope()
  %21 = call ptr @wmem_file_scope()
  %22 = call noalias ptr @wmem_tree_new_autoreset(ptr noundef %20, ptr noundef %21)
  store ptr %22, ptr @fragments, align 8
  %23 = call ptr @wmem_epan_scope()
  %24 = call ptr @wmem_file_scope()
  %25 = call noalias ptr @wmem_tree_new_autoreset(ptr noundef %23, ptr noundef %24)
  store ptr %25, ptr @handle_to_uuid, align 8
  %26 = load i32, ptr @proto_btatt, align 4
  %27 = call ptr @prefs_register_protocol_subtree(ptr noundef @.str.2130, i32 noundef %26, ptr noundef null)
  store ptr %27, ptr %1, align 8
  %28 = load ptr, ptr %1, align 8
  call void @prefs_register_static_text_preference(ptr noundef %28, ptr noundef @.str.2131, ptr noundef @.str.2132, ptr noundef @.str.2133)
  call void @register_decode_as(ptr noundef @proto_register_btatt.btatt_handle_da)
  %29 = call i32 @register_tap(ptr noundef @.str.2134)
  store i32 %29, ptr @btatt_tap_handles, align 4
  call void @llvm.lifetime.end.p0(i64 8, ptr %2) #12
  call void @llvm.lifetime.end.p0(i64 8, ptr %1) #12
  ret void
}