; Function Attrs: null_pointer_is_valid sspstrong uwtable
define hidden void @proto_register_btatt() local_unnamed_addr #1 {
  tail call void @reassembly_table_register(ptr noundef nonnull @msg_reassembly_table, ptr noundef nonnull @addresses_ports_reassembly_table_functions)
  tail call void @reassembly_table_init(ptr noundef nonnull @msg_reassembly_table, ptr noundef nonnull @addresses_ports_reassembly_table_functions)
  %1 = tail call i32 @proto_register_protocol(ptr noundef nonnull @.str.2125, ptr noundef nonnull @.str.2126, ptr noundef nonnull @.str.2124)
  store i32 %1, ptr @proto_btatt, align 4
  %2 = tail call ptr @register_dissector(ptr noundef nonnull @.str.2124, ptr noundef nonnull @dissect_btatt, i32 noundef %1)
  store ptr %2, ptr @btatt_handle, align 8
  %3 = load i32, ptr @proto_btatt, align 4
  %4 = tail call ptr @register_dissector_table(ptr noundef nonnull @.str.308, ptr noundef nonnull @.str.2127, i32 noundef %3, i32 noundef 5, i32 noundef 2)
  store ptr %4, ptr @att_handle_dissector_table, align 8
  %5 = load i32, ptr @proto_btatt, align 4
  %6 = tail call ptr @register_dissector_table(ptr noundef nonnull @.str.2128, ptr noundef nonnull @.str.2129, i32 noundef %5, i32 noundef 5, i32 noundef 2)
  store ptr %6, ptr @att_service_dissector_table, align 8
  %7 = load i32, ptr @proto_btatt, align 4
  tail call void @proto_register_field_array(i32 noundef %7, ptr noundef nonnull @proto_register_btatt.hf, i32 noundef 1082)
  tail call void @proto_register_subtree_array(ptr noundef nonnull @proto_register_btatt.ett, i32 noundef 8)
  %8 = load i32, ptr @proto_btatt, align 4
  %9 = tail call ptr @expert_register_protocol(i32 noundef %8)
  tail call void @expert_register_field_array(ptr noundef %9, ptr noundef nonnull @proto_register_btatt.ei, i32 noundef 13)
  %10 = tail call ptr @wmem_epan_scope()
  %11 = tail call ptr @wmem_file_scope()
  %12 = tail call noalias ptr @wmem_tree_new_autoreset(ptr noundef %10, ptr noundef %11)
  store ptr %12, ptr @mtus, align 8
  %13 = tail call ptr @wmem_epan_scope()
  %14 = tail call ptr @wmem_file_scope()
  %15 = tail call noalias ptr @wmem_tree_new_autoreset(ptr noundef %13, ptr noundef %14)
  store ptr %15, ptr @requests, align 8
  %16 = tail call ptr @wmem_epan_scope()
  %17 = tail call ptr @wmem_file_scope()
  %18 = tail call noalias ptr @wmem_tree_new_autoreset(ptr noundef %16, ptr noundef %17)
  store ptr %18, ptr @fragments, align 8
  %19 = tail call ptr @wmem_epan_scope()
  %20 = tail call ptr @wmem_file_scope()
  %21 = tail call noalias ptr @wmem_tree_new_autoreset(ptr noundef %19, ptr noundef %20)
  store ptr %21, ptr @handle_to_uuid, align 8
  %22 = load i32, ptr @proto_btatt, align 4
  %23 = tail call ptr @prefs_register_protocol_subtree(ptr noundef nonnull @.str.2130, i32 noundef %22, ptr noundef null)
  tail call void @prefs_register_static_text_preference(ptr noundef %23, ptr noundef nonnull @.str.2131, ptr noundef nonnull @.str.2132, ptr noundef nonnull @.str.2133)
  tail call void @register_decode_as(ptr noundef nonnull @proto_register_btatt.btatt_handle_da)
  %24 = tail call i32 @register_tap(ptr noundef nonnull @.str.2134)
  store i32 %24, ptr @btatt_tap_handles, align 4
  ret void
}